; Function Attrs: mustprogress noinline uwtable
define hidden noundef ptr @_ZN6google8protobuf5Arena18CreateMaybeMessageINS0_23SourceCodeInfo_LocationEJEEEPT_PS1_DpOT0_(ptr noundef %0) local_unnamed_addr #18 align 2 personality ptr @__gxx_personality_v0 {
  %2 = icmp eq ptr %0, null
  br i1 %2, label %_ZN6google8protobuf5Arena14InternalHelperINS0_23SourceCodeInfo_LocationEE3NewEv.exit, label %8

_ZN6google8protobuf5Arena14InternalHelperINS0_23SourceCodeInfo_LocationEE3NewEv.exit: ; preds = %1
  %3 = tail call noalias noundef nonnull dereferenceable(112) ptr @_Znwm(i64 noundef 112) #26
  %4 = getelementptr inbounds nuw i8, ptr %3, i64 8
  store i64 0, ptr %4, align 8, !tbaa !8
  store ptr getelementptr inbounds nuw inrange(-16, 152) (i8, ptr @_ZTVN6google8protobuf23SourceCodeInfo_LocationE, i64 16), ptr %3, align 8, !tbaa !11
  %.ptr.i = getelementptr inbounds nuw i8, ptr %3, i64 16
  %5 = getelementptr inbounds nuw i8, ptr %3, i64 48
  %6 = getelementptr inbounds nuw i8, ptr %3, i64 72
  %7 = getelementptr inbounds nuw i8, ptr %3, i64 96
  tail call void @llvm.memset.p0.i64(ptr noundef nonnull align 8 dereferenceable(24) %.ptr.i, i8 0, i64 24, i1 false)
  tail call void @llvm.memset.p0.i64(ptr noundef nonnull align 8 dereferenceable(16) %5, i8 0, i64 16, i1 false)
  tail call void @llvm.memset.p0.i64(ptr noundef nonnull align 8 dereferenceable(24) %6, i8 0, i64 24, i1 false)
  store ptr @_ZN6google8protobuf8internal26fixed_address_empty_stringB5cxx11E, ptr %7, align 8, !tbaa !84
  br label %_ZN6google8protobuf5Arena21CreateMessageInternalINS0_23SourceCodeInfo_LocationEEEPT_PS1_.exit

8:                                                ; preds = %1
  %9 = tail call noundef ptr @_ZN6google8protobuf5Arena23AllocateAlignedWithHookEmPKSt9type_info(ptr noundef nonnull align 8 dereferenceable(32) %0, i64 noundef 112, ptr noundef nonnull @_ZTIN6google8protobuf23SourceCodeInfo_LocationE)
  %10 = getelementptr inbounds nuw i8, ptr %9, i64 8
  %11 = ptrtoint ptr %0 to i64
  store i64 %11, ptr %10, align 8, !tbaa !8
  store ptr getelementptr inbounds nuw inrange(-16, 152) (i8, ptr @_ZTVN6google8protobuf23SourceCodeInfo_LocationE, i64 16), ptr %9, align 8, !tbaa !11
  %.ptr.i.i = getelementptr inbounds nuw i8, ptr %9, i64 16
  %12 = getelementptr inbounds nuw i8, ptr %9, i64 32
  tail call void @llvm.memset.p0.i64(ptr noundef nonnull align 8 dereferenceable(16) %.ptr.i.i, i8 0, i64 16, i1 false)
  store ptr %0, ptr %12, align 8, !tbaa !81
  %13 = getelementptr inbounds nuw i8, ptr %9, i64 48
  store i32 0, ptr %13, align 8, !tbaa !82
  %14 = getelementptr inbounds nuw i8, ptr %9, i64 52
  store i32 0, ptr %14, align 4, !tbaa !83
  %15 = getelementptr inbounds nuw i8, ptr %9, i64 56
  store ptr %0, ptr %15, align 8, !tbaa !81
  %16 = getelementptr inbounds nuw i8, ptr %9, i64 72
  store ptr %0, ptr %16, align 8, !tbaa !13
  %17 = getelementptr inbounds nuw i8, ptr %9, i64 80
  tail call void @llvm.memset.p0.i64(ptr noundef nonnull align 8 dereferenceable(16) %17, i8 0, i64 16, i1 false)
  %18 = getelementptr inbounds nuw i8, ptr %9, i64 96
  store ptr @_ZN6google8protobuf8internal26fixed_address_empty_stringB5cxx11E, ptr %18, align 8, !tbaa !84
  br label %_ZN6google8protobuf5Arena21CreateMessageInternalINS0_23SourceCodeInfo_LocationEEEPT_PS1_.exit

_ZN6google8protobuf5Arena21CreateMessageInternalINS0_23SourceCodeInfo_LocationEEEPT_PS1_.exit: ; preds = %_ZN6google8protobuf5Arena14InternalHelperINS0_23SourceCodeInfo_LocationEE3NewEv.exit, %8
  %.sink2 = phi ptr [ %3, %_ZN6google8protobuf5Arena14InternalHelperINS0_23SourceCodeInfo_LocationEE3NewEv.exit ], [ %9, %8 ]
  %19 = getelementptr inbounds nuw i8, ptr %.sink2, i64 104
  store ptr @_ZN6google8protobuf8internal26fixed_address_empty_stringB5cxx11E, ptr %19, align 8, !tbaa !84
  ret ptr %.sink2
}